; Function Attrs: mustprogress uwtable
define void @_ZN16OverlayScrollBar16updateChildStyleEv(ptr noundef nonnull align 8 dereferenceable(196) %0) local_unnamed_addr #0 align 2 personality ptr @__gxx_personality_v0 {
  %2 = alloca %class.QString, align 8
  %3 = getelementptr inbounds i8, ptr %0, i64 48
  %4 = load ptr, ptr %3, align 8
  %5 = tail call noundef ptr @_ZN12QApplication5styleEv()
  call void @_ZNK6QStyle4nameEv(ptr dead_on_unwind nonnull writable sret(%class.QString) align 8 %2, ptr noundef nonnull align 8 dereferenceable(16) %5)
  %6 = invoke noundef ptr @_ZN13QStyleFactory6createERK7QString(ptr noundef nonnull align 8 dereferenceable(24) %2)
          to label %7 unwind label %15

7:                                                ; preds = %1
  invoke void @_ZN11QProxyStyle12setBaseStyleEP6QStyle(ptr noundef nonnull align 8 dereferenceable(16) %4, ptr noundef %6)
          to label %8 unwind label %15

8:                                                ; preds = %7
  %9 = load ptr, ptr %2, align 8
  %.not.i.i.i = icmp eq ptr %9, null
  br i1 %.not.i.i.i, label %_ZN7QStringD2Ev.exit, label %_ZN17QArrayDataPointerIDsE5derefEv.exit.i.i

_ZN17QArrayDataPointerIDsE5derefEv.exit.i.i:      ; preds = %8
  %10 = atomicrmw sub ptr %9, i32 1 seq_cst, align 4
  %.not.i.i = icmp eq i32 %10, 1
  br i1 %.not.i.i, label %11, label %_ZN7QStringD2Ev.exit

11:                                               ; preds = %_ZN17QArrayDataPointerIDsE5derefEv.exit.i.i
  %12 = load ptr, ptr %2, align 8
  call void @_ZN10QArrayData10deallocateEPS_xx(ptr noundef %12, i64 noundef 2, i64 noundef 8) #11
  br label %_ZN7QStringD2Ev.exit

_ZN7QStringD2Ev.exit:                             ; preds = %8, %_ZN17QArrayDataPointerIDsE5derefEv.exit.i.i, %11
  %13 = getelementptr inbounds i8, ptr %0, i64 56
  %14 = load ptr, ptr %3, align 8
  call void @_ZN7QWidget8setStyleEP6QStyle(ptr noundef nonnull align 8 dereferenceable(40) %13, ptr noundef %14)
  ret void

15:                                               ; preds = %7, %1
  %16 = landingpad { ptr, i32 }
          cleanup
  %17 = load ptr, ptr %2, align 8
  %.not.i.i.i2 = icmp eq ptr %17, null
  br i1 %.not.i.i.i2, label %_ZN7QStringD2Ev.exit5, label %_ZN17QArrayDataPointerIDsE5derefEv.exit.i.i3

_ZN17QArrayDataPointerIDsE5derefEv.exit.i.i3:     ; preds = %15
  %18 = atomicrmw sub ptr %17, i32 1 seq_cst, align 4
  %.not.i.i4 = icmp eq i32 %18, 1
  br i1 %.not.i.i4, label %19, label %_ZN7QStringD2Ev.exit5

19:                                               ; preds = %_ZN17QArrayDataPointerIDsE5derefEv.exit.i.i3
  %20 = load ptr, ptr %2, align 8
  call void @_ZN10QArrayData10deallocateEPS_xx(ptr noundef %20, i64 noundef 2, i64 noundef 8) #11
  br label %_ZN7QStringD2Ev.exit5

_ZN7QStringD2Ev.exit5:                            ; preds = %15, %_ZN17QArrayDataPointerIDsE5derefEv.exit.i.i3, %19
  resume { ptr, i32 } %16
}